; ModuleID = 'source-C-CXX/48/1276.cpp'
source_filename = "source-C-CXX/48/1276.cpp"
target datalayout = "e-m:e-p270:32:32-p271:32:32-p272:64:64-i64:64-f80:128-n8:16:32:64-S128"
target triple = "x86_64-pc-linux-gnu"

%"class.std::ios_base::Init" = type { i8 }
%"class.std::basic_ostream" = type { i32 (...)**, %"class.std::basic_ios" }
%"class.std::basic_ios" = type { %"class.std::ios_base", %"class.std::basic_ostream"*, i8, i8, %"class.std::basic_streambuf"*, %"class.std::ctype"*, %"class.std::num_put"*, %"class.std::num_get"* }
%"class.std::ios_base" = type { i32 (...)**, i64, i64, i32, i32, i32, %"struct.std::ios_base::_Callback_list"*, %"struct.std::ios_base::_Words", [8 x %"struct.std::ios_base::_Words"], i32, %"struct.std::ios_base::_Words"*, %"class.std::locale" }
%"struct.std::ios_base::_Callback_list" = type { %"struct.std::ios_base::_Callback_list"*, void (i32, %"class.std::ios_base"*, i32)*, i32, i32 }
%"struct.std::ios_base::_Words" = type { i8*, i64 }
%"class.std::locale" = type { %"class.std::locale::_Impl"* }
%"class.std::locale::_Impl" = type { i32, %"class.std::locale::facet"**, i64, %"class.std::locale::facet"**, i8** }
%"class.std::locale::facet" = type <{ i32 (...)**, i32, [4 x i8] }>
%"class.std::basic_streambuf" = type { i32 (...)**, i8*, i8*, i8*, i8*, i8*, i8*, %"class.std::locale" }
%"class.std::ctype" = type <{ %"class.std::locale::facet.base", [4 x i8], %struct.__locale_struct*, i8, [7 x i8], i32*, i32*, i16*, i8, [256 x i8], [256 x i8], i8, [6 x i8] }>
%"class.std::locale::facet.base" = type <{ i32 (...)**, i32 }>
%struct.__locale_struct = type { [13 x %struct.__locale_data*], i16*, i32*, i32*, [13 x i8*] }
%struct.__locale_data = type opaque
%"class.std::num_put" = type { %"class.std::locale::facet.base", [4 x i8] }
%"class.std::num_get" = type { %"class.std::locale::facet.base", [4 x i8] }
%"class.std::basic_istream" = type { i32 (...)**, i64, %"class.std::basic_ios" }

@_ZStL8__ioinit = internal global %"class.std::ios_base::Init" zeroinitializer, align 1
@__dso_handle = external hidden global i8
@t = dso_local local_unnamed_addr global i32 0, align 4
@i = dso_local local_unnamed_addr global i32 0, align 4
@a = dso_local global [100 x i8] zeroinitializer, align 16
@b = dso_local global [10000 x [100 x i8]] zeroinitializer, align 16
@_ZSt4cout = external global %"class.std::basic_ostream", align 8
@_ZSt3cin = external global %"class.std::basic_istream", align 8
@llvm.global_ctors = appending global [1 x { i32, void ()*, i8* }] [{ i32, void ()*, i8* } { i32 65535, void ()* @_GLOBAL__sub_I_1276.cpp, i8* null }]

declare void @_ZNSt8ios_base4InitC1Ev(%"class.std::ios_base::Init"* nonnull align 1 dereferenceable(1)) unnamed_addr #0

; Function Attrs: nounwind
declare void @_ZNSt8ios_base4InitD1Ev(%"class.std::ios_base::Init"* nonnull align 1 dereferenceable(1)) unnamed_addr #1

; Function Attrs: nofree nounwind
declare i32 @__cxa_atexit(void (i8*)*, i8*, i8*) local_unnamed_addr #2

; Function Attrs: mustprogress sspstrong uwtable
define dso_local void @_Z1fi(i32 %0) local_unnamed_addr #3 {
  %2 = sext i32 %0 to i64
  %3 = getelementptr inbounds [10000 x [100 x i8]], [10000 x [100 x i8]]* @b, i64 0, i64 %2, i64 0
  %4 = tail call i64 @strlen(i8* noundef nonnull %3) #9
  %5 = trunc i64 %4 to i32
  %6 = icmp sgt i32 %5, 0
  br i1 %6, label %7, label %23

7:                                                ; preds = %1
  %8 = and i64 %4, 4294967295
  br label %11

9:                                                ; preds = %11
  %10 = icmp eq i64 %22, %8
  br i1 %10, label %23, label %11, !llvm.loop !5

11:                                               ; preds = %7, %9
  %12 = phi i64 [ 0, %7 ], [ %22, %9 ]
  %13 = getelementptr inbounds [10000 x [100 x i8]], [10000 x [100 x i8]]* @b, i64 0, i64 %2, i64 %12
  %14 = load i8, i8* %13, align 1, !tbaa !7
  %15 = xor i64 %12, -1
  %16 = add i64 %4, %15
  %17 = shl i64 %16, 32
  %18 = ashr exact i64 %17, 32
  %19 = getelementptr inbounds [10000 x [100 x i8]], [10000 x [100 x i8]]* @b, i64 0, i64 %2, i64 %18
  %20 = load i8, i8* %19, align 1, !tbaa !7
  %21 = icmp eq i8 %14, %20
  %22 = add nuw nsw i64 %12, 1
  br i1 %21, label %9, label %53

23:                                               ; preds = %9, %1
  %24 = tail call i64 @strlen(i8* noundef nonnull dereferenceable(1) %3) #10
  %25 = tail call nonnull align 8 dereferenceable(8) %"class.std::basic_ostream"* @_ZSt16__ostream_insertIcSt11char_traitsIcEERSt13basic_ostreamIT_T0_ES6_PKS3_l(%"class.std::basic_ostream"* nonnull align 8 dereferenceable(8) @_ZSt4cout, i8* nonnull %3, i64 %24)
  %26 = load i8*, i8** bitcast (%"class.std::basic_ostream"* @_ZSt4cout to i8**), align 8, !tbaa !10
  %27 = getelementptr i8, i8* %26, i64 -24
  %28 = bitcast i8* %27 to i64*
  %29 = load i64, i64* %28, align 8
  %30 = add nsw i64 %29, 240
  %31 = getelementptr inbounds i8, i8* bitcast (%"class.std::basic_ostream"* @_ZSt4cout to i8*), i64 %30
  %32 = bitcast i8* %31 to %"class.std::ctype"**
  %33 = load %"class.std::ctype"*, %"class.std::ctype"** %32, align 8, !tbaa !12
  %34 = icmp eq %"class.std::ctype"* %33, null
  br i1 %34, label %35, label %36

35:                                               ; preds = %23
  tail call void @_ZSt16__throw_bad_castv() #11
  unreachable

36:                                               ; preds = %23
  %37 = getelementptr inbounds %"class.std::ctype", %"class.std::ctype"* %33, i64 0, i32 8
  %38 = load i8, i8* %37, align 8, !tbaa !16
  %39 = icmp eq i8 %38, 0
  br i1 %39, label %43, label %40

40:                                               ; preds = %36
  %41 = getelementptr inbounds %"class.std::ctype", %"class.std::ctype"* %33, i64 0, i32 9, i64 10
  %42 = load i8, i8* %41, align 1, !tbaa !7
  br label %49

43:                                               ; preds = %36
  tail call void @_ZNKSt5ctypeIcE13_M_widen_initEv(%"class.std::ctype"* nonnull align 8 dereferenceable(570) %33)
  %44 = bitcast %"class.std::ctype"* %33 to i8 (%"class.std::ctype"*, i8)***
  %45 = load i8 (%"class.std::ctype"*, i8)**, i8 (%"class.std::ctype"*, i8)*** %44, align 8, !tbaa !10
  %46 = getelementptr inbounds i8 (%"class.std::ctype"*, i8)*, i8 (%"class.std::ctype"*, i8)** %45, i64 6
  %47 = load i8 (%"class.std::ctype"*, i8)*, i8 (%"class.std::ctype"*, i8)** %46, align 8
  %48 = tail call signext i8 %47(%"class.std::ctype"* nonnull align 8 dereferenceable(570) %33, i8 signext 10)
  br label %49

49:                                               ; preds = %40, %43
  %50 = phi i8 [ %42, %40 ], [ %48, %43 ]
  %51 = tail call nonnull align 8 dereferenceable(8) %"class.std::basic_ostream"* @_ZNSo3putEc(%"class.std::basic_ostream"* nonnull align 8 dereferenceable(8) @_ZSt4cout, i8 signext %50)
  %52 = tail call nonnull align 8 dereferenceable(8) %"class.std::basic_ostream"* @_ZNSo5flushEv(%"class.std::basic_ostream"* nonnull align 8 dereferenceable(8) %51)
  br label %53

53:                                               ; preds = %11, %49
  ret void
}

; Function Attrs: argmemonly mustprogress nofree nounwind readonly willreturn
declare i64 @strlen(i8* nocapture) local_unnamed_addr #4

; Function Attrs: mustprogress norecurse sspstrong uwtable
define dso_local i32 @main() local_unnamed_addr #5 {
  tail call void @_ZSt17__istream_extractRSiPcl(%"class.std::basic_istream"* nonnull align 8 dereferenceable(16) @_ZSt3cin, i8* nonnull getelementptr inbounds ([100 x i8], [100 x i8]* @a, i64 0, i64 0), i64 100)
  %1 = tail call i64 @strlen(i8* noundef nonnull dereferenceable(1) getelementptr inbounds ([100 x i8], [100 x i8]* @a, i64 0, i64 0)) #9
  %2 = trunc i64 %1 to i32
  store i32 %2, i32* @t, align 4, !tbaa !18
  %3 = icmp slt i32 %2, 2
  br i1 %3, label %14, label %4

4:                                                ; preds = %0, %88
  %5 = phi i32 [ %89, %88 ], [ %2, %0 ]
  %6 = phi i64 [ %93, %88 ], [ 0, %0 ]
  %7 = phi i32 [ %91, %88 ], [ 2, %0 ]
  %8 = phi i32 [ %90, %88 ], [ 0, %0 ]
  %9 = add nuw nsw i64 %6, 2
  store i32 0, i32* @i, align 4, !tbaa !18
  %10 = icmp slt i32 %5, %7
  br i1 %10, label %88, label %11

11:                                               ; preds = %4
  %12 = sext i32 %8 to i64
  %13 = add nsw i64 %12, 1
  br label %15

14:                                               ; preds = %88, %0
  ret i32 0

15:                                               ; preds = %11, %78
  %16 = phi i32 [ %5, %11 ], [ %79, %78 ]
  %17 = phi i32 [ %5, %11 ], [ %80, %78 ]
  %18 = phi i64 [ %12, %11 ], [ %25, %78 ]
  %19 = phi i64 [ 0, %11 ], [ %85, %78 ]
  %20 = phi i32 [ 0, %11 ], [ %82, %78 ]
  %21 = add i64 %13, %19
  %22 = getelementptr [10000 x [100 x i8]], [10000 x [100 x i8]]* @b, i64 0, i64 %21, i64 0
  %23 = sext i32 %20 to i64
  %24 = getelementptr [100 x i8], [100 x i8]* @a, i64 0, i64 %23
  call void @llvm.memcpy.p0i8.p0i8.i64(i8* noundef nonnull align 4 dereferenceable(1) %22, i8* noundef nonnull align 1 dereferenceable(1) %24, i64 %9, i1 false)
  %25 = add nsw i64 %18, 1
  %26 = getelementptr inbounds [10000 x [100 x i8]], [10000 x [100 x i8]]* @b, i64 0, i64 %25, i64 0
  %27 = tail call i64 @strlen(i8* noundef nonnull %26) #9
  %28 = trunc i64 %27 to i32
  %29 = icmp sgt i32 %28, 0
  br i1 %29, label %30, label %46

30:                                               ; preds = %15
  %31 = and i64 %27, 4294967295
  br label %34

32:                                               ; preds = %34
  %33 = icmp eq i64 %45, %31
  br i1 %33, label %46, label %34, !llvm.loop !5

34:                                               ; preds = %32, %30
  %35 = phi i64 [ 0, %30 ], [ %45, %32 ]
  %36 = getelementptr inbounds [10000 x [100 x i8]], [10000 x [100 x i8]]* @b, i64 0, i64 %25, i64 %35
  %37 = load i8, i8* %36, align 1, !tbaa !7
  %38 = xor i64 %35, -1
  %39 = add i64 %27, %38
  %40 = shl i64 %39, 32
  %41 = ashr exact i64 %40, 32
  %42 = getelementptr inbounds [10000 x [100 x i8]], [10000 x [100 x i8]]* @b, i64 0, i64 %25, i64 %41
  %43 = load i8, i8* %42, align 1, !tbaa !7
  %44 = icmp eq i8 %37, %43
  %45 = add nuw nsw i64 %35, 1
  br i1 %44, label %32, label %78

46:                                               ; preds = %32, %15
  %47 = tail call i64 @strlen(i8* noundef nonnull dereferenceable(1) %26) #10
  %48 = tail call nonnull align 8 dereferenceable(8) %"class.std::basic_ostream"* @_ZSt16__ostream_insertIcSt11char_traitsIcEERSt13basic_ostreamIT_T0_ES6_PKS3_l(%"class.std::basic_ostream"* nonnull align 8 dereferenceable(8) @_ZSt4cout, i8* nonnull %26, i64 %47)
  %49 = load i8*, i8** bitcast (%"class.std::basic_ostream"* @_ZSt4cout to i8**), align 8, !tbaa !10
  %50 = getelementptr i8, i8* %49, i64 -24
  %51 = bitcast i8* %50 to i64*
  %52 = load i64, i64* %51, align 8
  %53 = add nsw i64 %52, 240
  %54 = getelementptr inbounds i8, i8* bitcast (%"class.std::basic_ostream"* @_ZSt4cout to i8*), i64 %53
  %55 = bitcast i8* %54 to %"class.std::ctype"**
  %56 = load %"class.std::ctype"*, %"class.std::ctype"** %55, align 8, !tbaa !12
  %57 = icmp eq %"class.std::ctype"* %56, null
  br i1 %57, label %58, label %59

58:                                               ; preds = %46
  tail call void @_ZSt16__throw_bad_castv() #11
  unreachable

59:                                               ; preds = %46
  %60 = getelementptr inbounds %"class.std::ctype", %"class.std::ctype"* %56, i64 0, i32 8
  %61 = load i8, i8* %60, align 8, !tbaa !16
  %62 = icmp eq i8 %61, 0
  br i1 %62, label %66, label %63

63:                                               ; preds = %59
  %64 = getelementptr inbounds %"class.std::ctype", %"class.std::ctype"* %56, i64 0, i32 9, i64 10
  %65 = load i8, i8* %64, align 1, !tbaa !7
  br label %72

66:                                               ; preds = %59
  tail call void @_ZNKSt5ctypeIcE13_M_widen_initEv(%"class.std::ctype"* nonnull align 8 dereferenceable(570) %56)
  %67 = bitcast %"class.std::ctype"* %56 to i8 (%"class.std::ctype"*, i8)***
  %68 = load i8 (%"class.std::ctype"*, i8)**, i8 (%"class.std::ctype"*, i8)*** %67, align 8, !tbaa !10
  %69 = getelementptr inbounds i8 (%"class.std::ctype"*, i8)*, i8 (%"class.std::ctype"*, i8)** %68, i64 6
  %70 = load i8 (%"class.std::ctype"*, i8)*, i8 (%"class.std::ctype"*, i8)** %69, align 8
  %71 = tail call signext i8 %70(%"class.std::ctype"* nonnull align 8 dereferenceable(570) %56, i8 signext 10)
  br label %72

72:                                               ; preds = %66, %63
  %73 = phi i8 [ %65, %63 ], [ %71, %66 ]
  %74 = tail call nonnull align 8 dereferenceable(8) %"class.std::basic_ostream"* @_ZNSo3putEc(%"class.std::basic_ostream"* nonnull align 8 dereferenceable(8) @_ZSt4cout, i8 signext %73)
  %75 = tail call nonnull align 8 dereferenceable(8) %"class.std::basic_ostream"* @_ZNSo5flushEv(%"class.std::basic_ostream"* nonnull align 8 dereferenceable(8) %74)
  %76 = load i32, i32* @i, align 4, !tbaa !18
  %77 = load i32, i32* @t, align 4, !tbaa !18
  br label %78

78:                                               ; preds = %34, %72
  %79 = phi i32 [ %77, %72 ], [ %16, %34 ]
  %80 = phi i32 [ %77, %72 ], [ %17, %34 ]
  %81 = phi i32 [ %76, %72 ], [ %20, %34 ]
  %82 = add nsw i32 %81, 1
  store i32 %82, i32* @i, align 4, !tbaa !18
  %83 = sub nsw i32 %80, %7
  %84 = icmp slt i32 %81, %83
  %85 = add i64 %19, 1
  br i1 %84, label %15, label %86, !llvm.loop !20

86:                                               ; preds = %78
  %87 = trunc i64 %25 to i32
  br label %88

88:                                               ; preds = %86, %4
  %89 = phi i32 [ %5, %4 ], [ %79, %86 ]
  %90 = phi i32 [ %8, %4 ], [ %87, %86 ]
  %91 = add nuw nsw i32 %7, 1
  %92 = icmp slt i32 %7, %89
  %93 = add nuw nsw i64 %6, 1
  br i1 %92, label %4, label %14, !llvm.loop !21
}

declare nonnull align 8 dereferenceable(8) %"class.std::basic_ostream"* @_ZSt16__ostream_insertIcSt11char_traitsIcEERSt13basic_ostreamIT_T0_ES6_PKS3_l(%"class.std::basic_ostream"* nonnull align 8 dereferenceable(8), i8*, i64) local_unnamed_addr #0

declare nonnull align 8 dereferenceable(8) %"class.std::basic_ostream"* @_ZNSo3putEc(%"class.std::basic_ostream"* nonnull align 8 dereferenceable(8), i8 signext) local_unnamed_addr #0

declare nonnull align 8 dereferenceable(8) %"class.std::basic_ostream"* @_ZNSo5flushEv(%"class.std::basic_ostream"* nonnull align 8 dereferenceable(8)) local_unnamed_addr #0

; Function Attrs: noreturn
declare void @_ZSt16__throw_bad_castv() local_unnamed_addr #6

declare void @_ZNKSt5ctypeIcE13_M_widen_initEv(%"class.std::ctype"* nonnull align 8 dereferenceable(570)) local_unnamed_addr #0

declare void @_ZSt17__istream_extractRSiPcl(%"class.std::basic_istream"* nonnull align 8 dereferenceable(16), i8*, i64) local_unnamed_addr #0

; Function Attrs: sspstrong uwtable
define internal void @_GLOBAL__sub_I_1276.cpp() #7 section ".text.startup" {
  tail call void @_ZNSt8ios_base4InitC1Ev(%"class.std::ios_base::Init"* nonnull align 1 dereferenceable(1) @_ZStL8__ioinit)
  %1 = tail call i32 @__cxa_atexit(void (i8*)* bitcast (void (%"class.std::ios_base::Init"*)* @_ZNSt8ios_base4InitD1Ev to void (i8*)*), i8* getelementptr inbounds (%"class.std::ios_base::Init", %"class.std::ios_base::Init"* @_ZStL8__ioinit, i64 0, i32 0), i8* nonnull @__dso_handle) #10
  ret void
}

; Function Attrs: argmemonly nofree nounwind willreturn
declare void @llvm.memcpy.p0i8.p0i8.i64(i8* noalias nocapture writeonly, i8* noalias nocapture readonly, i64, i1 immarg) #8


!llvm.module.flags = !{!0, !1, !2, !3}
!llvm.ident = !{!4}

!0 = !{i32 1, !"wchar_size", i32 4}
!1 = !{i32 7, !"PIC Level", i32 2}
!2 = !{i32 7, !"PIE Level", i32 2}
!3 = !{i32 7, !"uwtable", i32 1}
!4 = !{!"clang version 13.0.0"}
!5 = distinct !{!5, !6}
!6 = !{!"llvm.loop.mustprogress"}
!7 = !{!8, !8, i64 0}
!8 = !{!"omnipotent char", !9, i64 0}
!9 = !{!"Simple C++ TBAA"}
!10 = !{!11, !11, i64 0}
!11 = !{!"vtable pointer", !9, i64 0}
!12 = !{!13, !14, i64 240}
!13 = !{!"_ZTSSt9basic_iosIcSt11char_traitsIcEE", !14, i64 216, !8, i64 224, !15, i64 225, !14, i64 232, !14, i64 240, !14, i64 248, !14, i64 256}
!14 = !{!"any pointer", !8, i64 0}
!15 = !{!"bool", !8, i64 0}
!16 = !{!17, !8, i64 56}
!17 = !{!"_ZTSSt5ctypeIcE", !14, i64 16, !15, i64 24, !14, i64 32, !14, i64 40, !14, i64 48, !8, i64 56, !8, i64 57, !8, i64 313, !8, i64 569}
!18 = !{!19, !19, i64 0}
!19 = !{!"int", !8, i64 0}
!20 = distinct !{!20, !6}
!21 = distinct !{!21, !6}
